target datalayout = "e-m:e-p270:32:32-p271:32:32-p272:64:64-i64:64-i128:128-f80:128-n8:16:32:64-S128"
target triple = "x86_64-pc-linux-gnu"

%struct.rewind_source = type { ptr, ptr, ptr, ptr, ptr, ptr, ptr }
%struct.TimeLineHistoryEntry = type { i32, i64, i64 }

@datadir_target = dso_local global ptr null, align 8
@debug = internal global i8 0, align 1
@source = internal global ptr null, align 8
@__pg_log_level = external global i32, align 4
@.str.81 = private unnamed_addr constant [25 x i8] c"Source timeline history:\00", align 1
@.str.82 = private unnamed_addr constant [25 x i8] c"Target timeline history:\00", align 1
@.str.83 = private unnamed_addr constant [18 x i8] c"%u: %X/%X - %X/%X\00", align 1
@.str.84 = private unnamed_addr constant [20 x i8] c"pg_wal/%08X.history\00", align 1

; Function Attrs: inlinehint nounwind uwtable
define internal void @TLHistoryFilePath(ptr noundef %0, i32 noundef %1) #7 {
  %3 = alloca ptr, align 8
  %4 = alloca i32, align 4
  store ptr %0, ptr %3, align 8
  store i32 %1, ptr %4, align 4
  %5 = load ptr, ptr %3, align 8
  %6 = load i32, ptr %4, align 4
  %7 = call i32 (ptr, i64, ptr, ...) @pg_snprintf(ptr noundef %5, i64 noundef 1024, ptr noundef @.str.84, i32 noundef %6)
  ret void
}

; Function Attrs: nounwind uwtable
define internal ptr @getTimelineHistory(i32 noundef %0, i1 noundef zeroext %1, ptr noundef %2) #0 {
  %4 = alloca i32, align 4
  %5 = alloca i8, align 1
  %6 = alloca ptr, align 8
  %7 = alloca ptr, align 8
  %8 = alloca [1024 x i8], align 16
  %9 = alloca ptr, align 8
  %10 = alloca i32, align 4
  %11 = alloca ptr, align 8
  %12 = alloca i32, align 4
  %13 = alloca i32, align 4
  store i32 %0, ptr %4, align 4
  %14 = zext i1 %1 to i8
  store i8 %14, ptr %5, align 1
  store ptr %2, ptr %6, align 8
  call void @llvm.lifetime.start.p0(i64 8, ptr %7) #9
  %15 = load i32, ptr %4, align 4
  %16 = icmp eq i32 %15, 1
  br i1 %16, label %17, label %27

17:                                               ; preds = %3
  %18 = call ptr @pg_malloc(i64 noundef 24)
  store ptr %18, ptr %7, align 8
  %19 = load i32, ptr %4, align 4
  %20 = load ptr, ptr %7, align 8
  %21 = getelementptr inbounds nuw %struct.TimeLineHistoryEntry, ptr %20, i32 0, i32 0
  store i32 %19, ptr %21, align 8
  %22 = load ptr, ptr %7, align 8
  %23 = getelementptr inbounds nuw %struct.TimeLineHistoryEntry, ptr %22, i32 0, i32 2
  store i64 0, ptr %23, align 8
  %24 = load ptr, ptr %7, align 8
  %25 = getelementptr inbounds nuw %struct.TimeLineHistoryEntry, ptr %24, i32 0, i32 1
  store i64 0, ptr %25, align 8
  %26 = load ptr, ptr %6, align 8
  store i32 1, ptr %26, align 4
  br label %49

27:                                               ; preds = %3
  call void @llvm.lifetime.start.p0(i64 1024, ptr %8) #9
  call void @llvm.lifetime.start.p0(i64 8, ptr %9) #9
  %28 = getelementptr inbounds [1024 x i8], ptr %8, i64 0, i64 0
  %29 = load i32, ptr %4, align 4
  call void @TLHistoryFilePath(ptr noundef %28, i32 noundef %29)
  %30 = load i8, ptr %5, align 1, !range !6, !noundef !7
  %31 = trunc i8 %30 to i1
  br i1 %31, label %32, label %39

32:                                               ; preds = %27
  %33 = load ptr, ptr @source, align 8
  %34 = getelementptr inbounds nuw %struct.rewind_source, ptr %33, i32 0, i32 1
  %35 = load ptr, ptr %34, align 8
  %36 = load ptr, ptr @source, align 8
  %37 = getelementptr inbounds [1024 x i8], ptr %8, i64 0, i64 0
  %38 = call ptr %35(ptr noundef %36, ptr noundef %37, ptr noundef null)
  store ptr %38, ptr %9, align 8
  br label %43

39:                                               ; preds = %27
  %40 = load ptr, ptr @datadir_target, align 8
  %41 = getelementptr inbounds [1024 x i8], ptr %8, i64 0, i64 0
  %42 = call ptr @slurpFile(ptr noundef %40, ptr noundef %41, ptr noundef null)
  store ptr %42, ptr %9, align 8
  br label %43

43:                                               ; preds = %39, %32
  %44 = load ptr, ptr %9, align 8
  %45 = load i32, ptr %4, align 4
  %46 = load ptr, ptr %6, align 8
  %47 = call ptr @rewind_parseTimeLineHistory(ptr noundef %44, i32 noundef %45, ptr noundef %46)
  store ptr %47, ptr %7, align 8
  %48 = load ptr, ptr %9, align 8
  call void @pg_free(ptr noundef %48)
  call void @llvm.lifetime.end.p0(i64 8, ptr %9) #9
  call void @llvm.lifetime.end.p0(i64 1024, ptr %8) #9
  br label %49

49:                                               ; preds = %43, %17
  %50 = load i8, ptr @debug, align 1, !range !6, !noundef !7
  %51 = trunc i8 %50 to i1
  br i1 %51, label %52, label %138

52:                                               ; preds = %49
  call void @llvm.lifetime.start.p0(i64 4, ptr %10) #9
  %53 = load i8, ptr %5, align 1, !range !6, !noundef !7
  %54 = trunc i8 %53 to i1
  br i1 %54, label %55, label %69

55:                                               ; preds = %52
  br label %56

56:                                               ; preds = %55
  %57 = load i32, ptr @__pg_log_level, align 4
  %58 = icmp ule i32 %57, 1
  %59 = zext i1 %58 to i32
  %60 = icmp ne i32 %59, 0
  %61 = zext i1 %60 to i32
  %62 = sext i32 %61 to i64
  %63 = call i64 @llvm.expect.i64(i64 %62, i64 0)
  %64 = icmp ne i64 %63, 0
  br i1 %64, label %65, label %66

65:                                               ; preds = %56
  call void (i32, i32, ptr, ...) @pg_log_generic(i32 noundef 1, i32 noundef 0, ptr noundef @.str.81)
  br label %66

66:                                               ; preds = %65, %56
  br label %67

67:                                               ; preds = %66
  br label %68

68:                                               ; preds = %67
  br label %83

69:                                               ; preds = %52
  br label %70

70:                                               ; preds = %69
  %71 = load i32, ptr @__pg_log_level, align 4
  %72 = icmp ule i32 %71, 1
  %73 = zext i1 %72 to i32
  %74 = icmp ne i32 %73, 0
  %75 = zext i1 %74 to i32
  %76 = sext i32 %75 to i64
  %77 = call i64 @llvm.expect.i64(i64 %76, i64 0)
  %78 = icmp ne i64 %77, 0
  br i1 %78, label %79, label %80

79:                                               ; preds = %70
  call void (i32, i32, ptr, ...) @pg_log_generic(i32 noundef 1, i32 noundef 0, ptr noundef @.str.82)
  br label %80

80:                                               ; preds = %79, %70
  br label %81

81:                                               ; preds = %80
  br label %82

82:                                               ; preds = %81
  br label %83

83:                                               ; preds = %82, %68
  store i32 0, ptr %10, align 4
  br label %84

84:                                               ; preds = %134, %83
  %85 = load i32, ptr %10, align 4
  %86 = load ptr, ptr %6, align 8
  %87 = load i32, ptr %86, align 4
  %88 = icmp slt i32 %85, %87
  br i1 %88, label %89, label %137

89:                                               ; preds = %84
  call void @llvm.lifetime.start.p0(i64 8, ptr %11) #9
  %90 = load ptr, ptr %7, align 8
  %91 = load i32, ptr %10, align 4
  %92 = sext i32 %91 to i64
  %93 = getelementptr inbounds %struct.TimeLineHistoryEntry, ptr %90, i64 %92
  store ptr %93, ptr %11, align 8
  br label %94

94:                                               ; preds = %89
  %95 = load i32, ptr @__pg_log_level, align 4
  %96 = icmp ule i32 %95, 1
  %97 = zext i1 %96 to i32
  %98 = icmp ne i32 %97, 0
  %99 = zext i1 %98 to i32
  %100 = sext i32 %99 to i64
  %101 = call i64 @llvm.expect.i64(i64 %100, i64 0)
  %102 = icmp ne i64 %101, 0
  br i1 %102, label %103, label %131

103:                                              ; preds = %94
  %104 = load ptr, ptr %11, align 8
  %105 = getelementptr inbounds nuw %struct.TimeLineHistoryEntry, ptr %104, i32 0, i32 0
  %106 = load i32, ptr %105, align 8
  br label %107

107:                                              ; preds = %103
  br label %108

108:                                              ; preds = %107
  br label %109

109:                                              ; preds = %108
  store i32 1, ptr %12, align 4
  %110 = load ptr, ptr %11, align 8
  %111 = getelementptr inbounds nuw %struct.TimeLineHistoryEntry, ptr %110, i32 0, i32 1
  %112 = load i64, ptr %111, align 8
  %113 = lshr i64 %112, 32
  %114 = trunc i64 %113 to i32
  %115 = load ptr, ptr %11, align 8
  %116 = getelementptr inbounds nuw %struct.TimeLineHistoryEntry, ptr %115, i32 0, i32 1
  %117 = load i64, ptr %116, align 8
  %118 = trunc i64 %117 to i32
  br label %119

119:                                              ; preds = %109
  br label %120

120:                                              ; preds = %119
  br label %121

121:                                              ; preds = %120
  store i32 1, ptr %13, align 4
  %122 = load ptr, ptr %11, align 8
  %123 = getelementptr inbounds nuw %struct.TimeLineHistoryEntry, ptr %122, i32 0, i32 2
  %124 = load i64, ptr %123, align 8
  %125 = lshr i64 %124, 32
  %126 = trunc i64 %125 to i32
  %127 = load ptr, ptr %11, align 8
  %128 = getelementptr inbounds nuw %struct.TimeLineHistoryEntry, ptr %127, i32 0, i32 2
  %129 = load i64, ptr %128, align 8
  %130 = trunc i64 %129 to i32
  call void (i32, i32, ptr, ...) @pg_log_generic(i32 noundef 1, i32 noundef 0, ptr noundef @.str.83, i32 noundef %106, i32 noundef %114, i32 noundef %118, i32 noundef %126, i32 noundef %130)
  br label %131

131:                                              ; preds = %121, %94
  br label %132

132:                                              ; preds = %131
  br label %133

133:                                              ; preds = %132
  call void @llvm.lifetime.end.p0(i64 8, ptr %11) #9
  br label %134

134:                                              ; preds = %133
  %135 = load i32, ptr %10, align 4
  %136 = add i32 %135, 1
  store i32 %136, ptr %10, align 4
  br label %84, !llvm.loop !8

137:                                              ; preds = %84
  call void @llvm.lifetime.end.p0(i64 4, ptr %10) #9
  br label %138

138:                                              ; preds = %137, %49
  %139 = load ptr, ptr %7, align 8
  call void @llvm.lifetime.end.p0(i64 8, ptr %7) #9
  ret ptr %139
}