; Function Attrs: nounwind uwtable
define internal fastcc ptr @getTimelineHistory(i32 noundef %0, i1 noundef zeroext %1, ptr noundef %2) unnamed_addr #0 {
  %4 = alloca [1024 x i8], align 16
  %5 = icmp eq i32 %0, 1
  br i1 %5, label %6, label %9

6:                                                ; preds = %3
  %7 = tail call ptr @pg_malloc(i64 noundef 24) #12
  store i32 1, ptr %7, align 8
  %8 = getelementptr inbounds nuw i8, ptr %7, i64 8
  tail call void @llvm.memset.p0.i64(ptr noundef nonnull align 8 dereferenceable(16) %8, i8 0, i64 16, i1 false)
  store i32 1, ptr %2, align 4
  br label %21

9:                                                ; preds = %3
  call void @llvm.lifetime.start.p0(i64 1024, ptr nonnull %4) #12
  %10 = call i32 (ptr, i64, ptr, ...) @pg_snprintf(ptr noundef nonnull %4, i64 noundef 1024, ptr noundef nonnull @.str.84, i32 noundef range(i32 2, 1) %0) #12
  br i1 %1, label %11, label %16

11:                                               ; preds = %9
  %12 = load ptr, ptr @source, align 8
  %13 = getelementptr inbounds nuw i8, ptr %12, i64 8
  %14 = load ptr, ptr %13, align 8
  %15 = call ptr %14(ptr noundef %12, ptr noundef nonnull %4, ptr noundef null) #12
  br label %19

16:                                               ; preds = %9
  %17 = load ptr, ptr @datadir_target, align 8
  %18 = call ptr @slurpFile(ptr noundef %17, ptr noundef nonnull %4, ptr noundef null) #12
  br label %19

19:                                               ; preds = %16, %11
  %.023 = phi ptr [ %15, %11 ], [ %18, %16 ]
  %20 = call ptr @rewind_parseTimeLineHistory(ptr noundef %.023, i32 noundef %0, ptr noundef %2) #12
  call void @pg_free(ptr noundef %.023) #12
  call void @llvm.lifetime.end.p0(i64 1024, ptr nonnull %4) #12
  br label %21

21:                                               ; preds = %19, %6
  %.0 = phi ptr [ %7, %6 ], [ %20, %19 ]
  %.b26 = load i1, ptr @debug, align 1
  br i1 %.b26, label %22, label %.loopexit

22:                                               ; preds = %21
  %23 = load i32, ptr @__pg_log_level, align 4
  %24 = icmp ult i32 %23, 2
  br i1 %24, label %.sink.split, label %25, !prof !6

.sink.split:                                      ; preds = %22
  %.str.81..str.82 = select i1 %1, ptr @.str.81, ptr @.str.82
  call void (i32, i32, ptr, ...) @pg_log_generic(i32 noundef 1, i32 noundef 0, ptr noundef nonnull %.str.81..str.82) #12
  br label %25

25:                                               ; preds = %22, %.sink.split
  %26 = load i32, ptr %2, align 4
  %27 = icmp sgt i32 %26, 0
  %28 = load i32, ptr @__pg_log_level, align 4
  %29 = icmp ult i32 %28, 2
  %or.cond = select i1 %27, i1 %29, i1 false
  br i1 %or.cond, label %.lr.ph.split, label %.loopexit

.lr.ph.split:                                     ; preds = %25, %46
  %30 = phi i32 [ %47, %46 ], [ %26, %25 ]
  %31 = phi i32 [ %48, %46 ], [ %28, %25 ]
  %indvars.iv = phi i64 [ %indvars.iv.next, %46 ], [ 0, %25 ]
  %32 = icmp ult i32 %31, 2
  br i1 %32, label %33, label %46, !prof !6

33:                                               ; preds = %.lr.ph.split
  %34 = getelementptr inbounds nuw %struct.TimeLineHistoryEntry, ptr %.0, i64 %indvars.iv
  %35 = load i32, ptr %34, align 8
  %36 = getelementptr inbounds nuw i8, ptr %34, i64 8
  %37 = load i64, ptr %36, align 8
  %38 = lshr i64 %37, 32
  %39 = trunc nuw i64 %38 to i32
  %40 = trunc i64 %37 to i32
  %41 = getelementptr inbounds nuw i8, ptr %34, i64 16
  %42 = load i64, ptr %41, align 8
  %43 = lshr i64 %42, 32
  %44 = trunc nuw i64 %43 to i32
  %45 = trunc i64 %42 to i32
  call void (i32, i32, ptr, ...) @pg_log_generic(i32 noundef 1, i32 noundef 0, ptr noundef nonnull @.str.83, i32 noundef %35, i32 noundef %39, i32 noundef %40, i32 noundef %44, i32 noundef %45) #12
  %.pre = load i32, ptr @__pg_log_level, align 4
  %.pre31 = load i32, ptr %2, align 4
  br label %46

46:                                               ; preds = %33, %.lr.ph.split
  %47 = phi i32 [ %.pre31, %33 ], [ %30, %.lr.ph.split ]
  %48 = phi i32 [ %.pre, %33 ], [ %31, %.lr.ph.split ]
  %indvars.iv.next = add nuw nsw i64 %indvars.iv, 1
  %49 = sext i32 %47 to i64
  %50 = icmp slt i64 %indvars.iv.next, %49
  br i1 %50, label %.lr.ph.split, label %.loopexit, !llvm.loop !12

.loopexit:                                        ; preds = %46, %25, %21
  ret ptr %.0
}